target datalayout = "e-m:e-p270:32:32-p271:32:32-p272:64:64-i64:64-i128:128-f80:128-n8:16:32:64-S128"
target triple = "x86_64-unknown-linux-gnu"

%"class.QuantLib::Null" = type { i8 }

; Function Attrs: mustprogress nounwind uwtable
define linkonce_odr noundef i32 @_ZNSt14numeric_limitsIiE3maxEv() #4 comdat align 2 {
entry:
  ret i32 2147483647
}

; Function Attrs: mustprogress nounwind uwtable
define linkonce_odr noundef i32 @_ZN8QuantLib6detail17FloatingPointNullILb0EE9nullValueEv() #4 comdat align 2 {
entry:
  %call = call noundef i32 @_ZNSt14numeric_limitsIiE3maxEv() #14
  ret i32 %call
}

; Function Attrs: mustprogress uwtable
define linkonce_odr noundef i64 @_ZNK8QuantLib4NullImEcvmEv(ptr noundef nonnull align 1 dereferenceable(1) %this) #2 comdat align 2 {
entry:
  %this.addr = alloca ptr, align 8
  store ptr %this, ptr %this.addr, align 8, !tbaa !3
  %call = call noundef i32 @_ZN8QuantLib6detail17FloatingPointNullILb0EE9nullValueEv()
  %conv = sext i32 %call to i64
  ret i64 %conv
}

; Function Attrs: mustprogress uwtable
define noundef i64 @_ZN8QuantLib29FdmVPPStartLimitStepCondition7nStatesEmmm(i64 noundef %tMinUp, i64 noundef %tMinDown, i64 noundef %nStarts) #2 align 2 {
entry:
  %tMinUp.addr = alloca i64, align 8
  %tMinDown.addr = alloca i64, align 8
  %nStarts.addr = alloca i64, align 8
  %ref.tmp = alloca %"class.QuantLib::Null", align 1
  store i64 %tMinUp, ptr %tMinUp.addr, align 8, !tbaa !9
  store i64 %tMinDown, ptr %tMinDown.addr, align 8, !tbaa !9
  store i64 %nStarts, ptr %nStarts.addr, align 8, !tbaa !9
  %0 = load i64, ptr %tMinUp.addr, align 8, !tbaa !9
  %mul = mul i64 2, %0
  %1 = load i64, ptr %tMinDown.addr, align 8, !tbaa !9
  %add = add i64 %mul, %1
  %2 = load i64, ptr %nStarts.addr, align 8, !tbaa !9
  call void @llvm.lifetime.start.p0(i64 1, ptr %ref.tmp) #14
  %call = call noundef i64 @_ZNK8QuantLib4NullImEcvmEv(ptr noundef nonnull align 1 dereferenceable(1) %ref.tmp)
  %cmp = icmp eq i64 %2, %call
  br i1 %cmp, label %cond.true, label %cond.false

cond.true:                                        ; preds = %entry
  br label %cond.end

cond.false:                                       ; preds = %entry
  %3 = load i64, ptr %nStarts.addr, align 8, !tbaa !9
  %add1 = add i64 %3, 1
  br label %cond.end

cond.end:                                         ; preds = %cond.false, %cond.true
  %cond = phi i64 [ 1, %cond.true ], [ %add1, %cond.false ]
  %mul2 = mul i64 %add, %cond
  call void @llvm.lifetime.end.p0(i64 1, ptr %ref.tmp) #14
  ret i64 %mul2
}