; Function Attrs: mustprogress nofree norecurse nosync nounwind willreturn memory(none) uwtable
define noundef i64 @_ZN8QuantLib29FdmVPPStartLimitStepCondition7nStatesEmmm(i64 noundef %tMinUp, i64 noundef %tMinDown, i64 noundef %nStarts) local_unnamed_addr #8 align 2 {
entry:
  %mul = shl i64 %tMinUp, 1
  %add = add i64 %mul, %tMinDown
  %cmp = icmp eq i64 %nStarts, 2147483647
  %add1 = add i64 %nStarts, 1
  %cond = select i1 %cmp, i64 1, i64 %add1
  %mul2 = mul i64 %cond, %add
  ret i64 %mul2
}